Certificate:
    Data:
        Version: 3 (0x2)
        Serial Number: 10 (0xa)
        Signature Algorithm: sha512WithRSAEncryption
        Issuer: C=US, CN=ca.api-proj.com, O=api-proj
        Validity
            Not Before: Sep 29 00:53:10 2015 GMT
            Not After : Sep 26 00:53:10 2025 GMT
        Subject: O=api-proj, CN=apiproj-client4
        Subject Public Key Info:
            Public Key Algorithm: id-ecPublicKey
            EC Public Key:
                pub: 
                    04:01:5f:ea:f3:a6:88:9e:a7:c9:a8:47:29:26:0d:
                    01:15:99:1e:7a:c0:87:6d:00:59:ef:1b:91:7d:99:
                    60:19:05:20:73:b3:81:35:6e:4f:7c:79:9f:2a:8e:
                    de:8e:1b:cb:80:25:19:6c:98:6a:2f:11:0f:57:62:
                    13:d0:29:89:95:7d:2c:00:b6:fc:76:02:e6:eb:c6:
                    0b:b2:59:bb:1b:79:e1:78:b6:a2:c6:49:02:7c:3a:
                    09:6d:c5:72:8f:5c:97:fd:c8:57:99:c8:73:99:39:
                    72:19:86:61:f2:89:66:9e:70:be:07:9f:20:b8:c7:
                    03:6a:60:51:0d:33:7d:be:4e:9d:39:a2:85
                ASN1 OID: secp521r1
        X509v3 extensions:
            X509v3 Basic Constraints: 
                CA:FALSE
            X509v3 Extended Key Usage: 
                TLS Web Client Authentication
            X509v3 Key Usage: 
                Digital Signature, Key Encipherment
    Signature Algorithm: sha512WithRSAEncryption
        25:84:66:6b:6c:a7:3c:f6:1f:40:7f:0a:3c:5e:cc:a5:a9:ba:
        1a:66:91:3d:bd:8e:6e:1e:ea:b2:d9:dd:4a:84:3a:f2:79:c2:
        24:c8:72:5b:c5:bc:a3:b5:5f:f2:98:01:be:a3:6e:ad:6b:8e:
        e4:ac:3c:1b:41:93:06:83:25:15:c2:b0:d4:1e:51:f7:3f:c5:
        ee:d1:fd:79:03:15:73:ba:de:6a:f5:d7:40:9a:84:1a:21:38:
        ad:75:81:20:36:e3:d9:e4:e7:90:bd:fe:00:fb:2a:10:17:bf:
        73:14:fc:18:94:32:b6:de:09:e2:53:24:8e:f1:a1:ec:95:b8:
        7b:63:99:29:d2:5f:ae:20:49:92:c1:3f:d8:43:77:28:02:b8:
        41:a9:72:84:76:27:5a:9a:03:18:f2:09:42:43:8d:16:8b:19:
        1c:cf:95:07:74:64:06:31:52:84:7f:4a:a5:30:41:dc:30:c6:
        16:49:77:1a:9a:0f:c2:d8:8c:e2:af:35:dd:2d:58:8f:24:3d:
        f4:e3:55:07:3f:e6:1b:f0:c5:4c:a5:fa:8b:6c:f0:f1:78:1f:
        61:d0:49:11:c9:c4:c5:2a:be:e6:6f:ed:4d:25:6f:42:38:35:
        6f:37:2c:37:0c:f3:2d:09:51:6f:da:00:c4:cf:58:45:1a:98:
        95:3d:33:22:61:60:9d:22:fb:19:c6:90:f8:73:7c:84:11:56:
        33:52:a8:29:90:ef:2f:fc:6f:bc:2f:74:3c:c0:f7:62:c9:e3:
        1b:81:f9:03:d2:64:92:78:10:d1:74:c6:d2:ca:e8:87:68:18:
        2d:4b:a9:e1:54:4b:38:b5:d3:ff:78:87:c4:3e:d3:eb:8f:5a:
        f4:64:10:58:2e:d1:83:3e:31:a5:9a:bd:ca:24:01:1d:b4:2e:
        b2:0e:a8:a9:e9:02:69:f1:59:24:00:76:3a:e1:a7:ca:19:4e:
        a9:fb:d8:a1:c6:4d:11:7c:ea:bd:a1:13:b3:f0:bc:79:3f:a9:
        2b:10:38:a4:4b:82:bb:8f:7c:47:be:16:34:7c:10:3c:4d:4a:
        93:54:11:07:8b:0a:0b:e9:5f:78:8c:4c:e6:9a:63:23:81:b9:
        5a:23:42:00:31:ac:76:39:8f:db:59:74:2d:67:61:d0:aa:ed:
        c8:ec:7f:ca:9d:c2:65:af:f2:89:27:25:ab:3a:49:58:21:e2:
        25:6f:5d:8a:ef:17:bf:da:a4:fc:45:89:c6:80:a1:63:57:60:
        8d:3d:18:ef:e1:b4:0f:2d:03:7c:4c:49:ec:8a:59:ed:16:4f:
        74:0a:4c:47:fd:c9:5d:c5:38:89:9d:4d:a9:0d:f3:ab:4e:fb:
        b2:2a:31:69:17:a5:6b:d7
-----BEGIN CERTIFICATE-----
MIIDiTCCAXGgAwIBAgIBCjANBgkqhkiG9w0BAQ0FADA6MQswCQYDVQQGEwJVUzEY
MBYGA1UEAwwPY2EuYXBpLXByb2ouY29tMREwDwYDVQQKDAhhcGktcHJvajAeFw0x
NTA5MjkwMDUzMTBaFw0yNTA5MjYwMDUzMTBaMC0xETAPBgNVBAoMCGFwaS1wcm9q
MRgwFgYDVQQDDA9hcGlwcm9qLWNsaWVudDQwgZswEAYHKoZIzj0CAQYFK4EEACMD
gYYABAFf6vOmiJ6nyahHKSYNARWZHnrAh20AWe8bkX2ZYBkFIHOzgTVuT3x5nyqO
3o4by4AlGWyYai8RD1diE9ApiZV9LAC2/HYC5uvGC7JZuxt54Xi2osZJAnw6CW3F
co9cl/3IV5nIc5k5chmGYfKJZp5wvgefILjHA2pgUQ0zfb5OnTmihaMvMC0wCQYD
VR0TBAIwADATBgNVHSUEDDAKBggrBgEFBQcDAjALBgNVHQ8EBAMCBaAwDQYJKoZI
hvcNAQENBQADggIBACWEZmtspzz2H0B/CjxezKWpuhpmkT29jm4e6rLZ3UqEOvJ5
wiTIclvFvKO1X/KYAb6jbq1rjuSsPBtBkwaDJRXCsNQeUfc/xe7R/XkDFXO63mr1
10CahBohOK11gSA249nk55C9/gD7KhAXv3MU/BiUMrbeCeJTJI7xoeyVuHtjmSnS
X64gSZLBP9hDdygCuEGpcoR2J1qaAxjyCUJDjRaLGRzPlQd0ZAYxUoR/SqUwQdww
xhZJdxqaD8LYjOKvNd0tWI8kPfTjVQc/5hvwxUyl+ots8PF4H2HQSRHJxMUqvuZv
7U0lb0I4NW83LDcM8y0JUW/aAMTPWEUamJU9MyJhYJ0i+xnGkPhzfIQRVjNSqCmQ
7y/8b7wvdDzA92LJ4xuB+QPSZJJ4ENF0xtLK6IdoGC1LqeFUSzi10/94h8Q+0+uP
WvRkEFgu0YM+MaWavcokAR20LrIOqKnpAmnxWSQAdjrhp8oZTqn72KHGTRF86r2h
E7PwvHk/qSsQOKRLgruPfEe+FjR8EDxNSpNUEQeLCgvpX3iMTOaaYyOBuVojQgAx
rHY5j9tZdC1nYdCq7cjsf8qdwmWv8oknJas6SVgh4iVvXYrvF7/apPxFicaAoWNX
YI09GO/htA8tA3xMSeyKWe0WT3QKTEf9yV3FOImdTakN86tO+7IqMWkXpWvX
-----END CERTIFICATE-----
