Certificate:
    Data:
        Version: 3 (0x2)
        Serial Number: 2 (0x2)
    Signature Algorithm: ecdsa-with-SHA512
        Issuer: C=US, CN=dev.knollit.com, O=knollit
        Validity
            Not Before: Feb 29 01:44:14 2016 GMT
            Not After : Feb 26 01:44:14 2026 GMT
        Subject: O=knollit, CN=client.dev.knollit.com
        Subject Public Key Info:
            Public Key Algorithm: id-ecPublicKey
                Public-Key: (521 bit)
                pub: 
                    04:00:bb:62:2f:cf:f7:c4:11:d4:3a:1e:2c:95:be:
                    d1:dc:02:5f:09:14:1c:36:0e:58:6c:ff:9e:bf:09:
                    cd:be:76:f4:08:40:ff:6d:9d:12:f5:03:a4:b1:62:
                    96:5e:42:ec:3c:0d:76:67:1b:f8:d9:fd:47:c8:d1:
                    b8:5b:c4:2c:01:a9:f3:00:ba:3c:60:be:ac:33:3b:
                    d0:60:66:75:b2:35:ac:bf:56:35:c3:88:70:eb:96:
                    b6:d3:72:f9:f3:e3:d2:6f:f6:7a:be:9a:2a:2b:ed:
                    36:d5:a6:ef:cb:3e:e8:cb:68:71:af:3f:8e:67:f6:
                    c8:b4:29:24:c9:32:af:39:68:53:83:c9:91
                ASN1 OID: secp521r1
                NIST CURVE: P-521
        X509v3 extensions:
            X509v3 Basic Constraints: 
                CA:FALSE
            X509v3 Extended Key Usage: 
                TLS Web Client Authentication
            X509v3 Key Usage: 
                Digital Signature, Key Encipherment
    Signature Algorithm: ecdsa-with-SHA512
         30:81:88:02:42:01:4c:4a:a9:c7:10:06:81:d1:22:0d:19:9b:
         07:65:09:eb:2c:de:81:10:ab:d6:6d:e7:00:d9:7b:1f:2f:29:
         e1:b6:82:ac:cd:3a:dd:0c:76:cb:6a:59:85:3f:2c:a0:a9:ab:
         c6:a6:ff:6b:73:4c:e0:a6:c1:68:a6:c5:76:7a:1e:e0:8d:02:
         42:00:cd:a7:23:e5:17:5f:a6:d2:98:07:6c:35:be:a4:63:78:
         6d:71:80:3c:34:03:db:57:b9:af:90:b0:29:a9:8d:4e:f6:06:
         9f:4c:28:c8:13:66:40:1d:f7:d6:7b:e4:b6:c1:05:86:25:8e:
         cb:af:c7:ae:19:64:4d:61:67:8c:38:23:08
-----BEGIN CERTIFICATE-----
MIICEjCCAXOgAwIBAgIBAjAKBggqhkjOPQQDBDA5MQswCQYDVQQGEwJVUzEYMBYG
A1UEAwwPZGV2Lmtub2xsaXQuY29tMRAwDgYDVQQKDAdrbm9sbGl0MB4XDTE2MDIy
OTAxNDQxNFoXDTI2MDIyNjAxNDQxNFowMzEQMA4GA1UECgwHa25vbGxpdDEfMB0G
A1UEAwwWY2xpZW50LmRldi5rbm9sbGl0LmNvbTCBmzAQBgcqhkjOPQIBBgUrgQQA
IwOBhgAEALtiL8/3xBHUOh4slb7R3AJfCRQcNg5YbP+evwnNvnb0CED/bZ0S9QOk
sWKWXkLsPA12Zxv42f1HyNG4W8QsAanzALo8YL6sMzvQYGZ1sjWsv1Y1w4hw65a2
03L58+PSb/Z6vpoqK+021abvyz7oy2hxrz+OZ/bItCkkyTKvOWhTg8mRoy8wLTAJ
BgNVHRMEAjAAMBMGA1UdJQQMMAoGCCsGAQUFBwMCMAsGA1UdDwQEAwIFoDAKBggq
hkjOPQQDBAOBjAAwgYgCQgFMSqnHEAaB0SINGZsHZQnrLN6BEKvWbecA2XsfLynh
toKszTrdDHbLalmFPyygqavGpv9rc0zgpsFopsV2eh7gjQJCAM2nI+UXX6bSmAds
Nb6kY3htcYA8NAPbV7mvkLApqY1O9gafTCjIE2ZAHffWe+S2wQWGJY7Lr8euGWRN
YWeMOCMI
-----END CERTIFICATE-----
