Certificate:
    Data:
        Version: 3 (0x2)
        Serial Number: 12 (0xc)
        Signature Algorithm: ecdsa-with-SHA1
        Issuer: C=US, CN=ca.test.com, O=api-proj
        Validity
            Not Before: Oct  2 00:40:32 2015 GMT
            Not After : Sep 29 00:40:32 2025 GMT
        Subject: O=api-proj, CN=client.test.com
        Subject Public Key Info:
            Public Key Algorithm: id-ecPublicKey
            EC Public Key:
                pub: 
                    04:01:84:41:cd:4d:7f:3c:a5:4e:5e:75:de:a9:96:
                    9e:11:84:c8:7b:e5:42:41:40:05:e1:23:78:a5:c3:
                    b8:45:e8:be:42:82:df:76:87:49:7d:39:ce:2f:11:
                    55:01:b7:db:0d:57:09:af:8c:dc:32:bc:86:e5:61:
                    b2:f8:9f:96:4a:e8:54:00:3a:0e:66:fb:6f:9c:3c:
                    64:4c:63:35:fc:b4:d9:38:43:83:af:a3:45:49:f6:
                    dd:ce:c6:92:65:1a:2d:19:05:48:21:a9:e2:ae:10:
                    cb:91:13:28:35:9b:9b:ee:8b:e5:f3:c8:18:d5:74:
                    12:56:78:8c:81:b7:22:50:7b:6e:c0:ac:41
                ASN1 OID: secp521r1
        X509v3 extensions:
            X509v3 Basic Constraints: 
                CA:FALSE
            X509v3 Extended Key Usage: 
                TLS Web Client Authentication
            X509v3 Key Usage: 
                Digital Signature, Key Encipherment
    Signature Algorithm: ecdsa-with-SHA1
        30:81:88:02:42:01:55:d5:53:32:f5:6e:ce:a2:74:22:99:cc:
        26:37:02:5c:79:64:ee:10:4d:64:c9:4d:f6:81:f2:73:24:30:
        e8:62:f3:79:3e:50:b3:58:76:0f:bf:cd:65:ad:1f:80:9c:34:
        1e:c6:dd:cc:d8:83:f0:ca:47:92:18:22:92:46:05:f0:3b:02:
        42:01:65:54:93:59:00:f8:3f:38:5c:cb:38:8b:0f:fc:c4:fd:
        2e:69:9b:d9:ee:15:3e:d5:4e:aa:eb:66:c7:2a:44:49:62:23:
        5a:30:00:eb:57:b8:d9:32:7a:56:c2:2d:bb:8b:1d:c5:0d:ca:
        70:a5:90:14:0f:cd:42:26:8b:77:c2:45:64
-----BEGIN CERTIFICATE-----
MIICBzCCAWmgAwIBAgIBDDAJBgcqhkjOPQQBMDYxCzAJBgNVBAYTAlVTMRQwEgYD
VQQDDAtjYS50ZXN0LmNvbTERMA8GA1UECgwIYXBpLXByb2owHhcNMTUxMDAyMDA0
MDMyWhcNMjUwOTI5MDA0MDMyWjAtMREwDwYDVQQKDAhhcGktcHJvajEYMBYGA1UE
AwwPY2xpZW50LnRlc3QuY29tMIGbMBAGByqGSM49AgEGBSuBBAAjA4GGAAQBhEHN
TX88pU5edd6plp4RhMh75UJBQAXhI3ilw7hF6L5Cgt92h0l9Oc4vEVUBt9sNVwmv
jNwyvIblYbL4n5ZK6FQAOg5m+2+cPGRMYzX8tNk4Q4Ovo0VJ9t3OxpJlGi0ZBUgh
qeKuEMuREyg1m5vui+XzyBjVdBJWeIyBtyJQe27ArEGjLzAtMAkGA1UdEwQCMAAw
EwYDVR0lBAwwCgYIKwYBBQUHAwIwCwYDVR0PBAQDAgWgMAkGByqGSM49BAEDgYwA
MIGIAkIBVdVTMvVuzqJ0IpnMJjcCXHlk7hBNZMlN9oHycyQw6GLzeT5Qs1h2D7/N
Za0fgJw0HsbdzNiD8MpHkhgikkYF8DsCQgFlVJNZAPg/OFzLOIsP/MT9Lmmb2e4V
PtVOqutmxypESWIjWjAA61e42TJ6VsItu4sdxQ3KcKWQFA/NQiaLd8JFZA==
-----END CERTIFICATE-----
